; Function Attrs: mustprogress uwtable
define internal fastcc void @_ZL15bytecodeAsArrayB5cxx11RKSt6vectorIhSaIhEE(ptr dead_on_unwind noalias nonnull writable align 8 %0, ptr noundef nonnull readonly align 8 captures(none) dereferenceable(24) %1) unnamed_addr #2 personality ptr @__gxx_personality_v0 {
  %3 = alloca %"class.std::__cxx11::basic_string", align 8
  %4 = alloca %"class.std::allocator.21", align 1
  call void @_ZNSaIcEC1Ev(ptr noundef nonnull align 1 dereferenceable(1) %4) #16
  %5 = invoke noundef ptr @_ZNSt7__cxx1112basic_stringIcSt11char_traitsIcESaIcEE13_M_local_dataEv(ptr noundef nonnull align 8 dereferenceable(32) %3)
          to label %.noexc unwind label %25

.noexc:                                           ; preds = %2
  invoke void @_ZNSt7__cxx1112basic_stringIcSt11char_traitsIcESaIcEE12_Alloc_hiderC1EPcRKS3_(ptr noundef nonnull align 8 dereferenceable(32) %3, ptr noundef %5, ptr noundef nonnull align 1 dereferenceable(1) %4)
          to label %.noexc10 unwind label %25

.noexc10:                                         ; preds = %.noexc
  invoke void @_ZNSt7__cxx1112basic_stringIcSt11char_traitsIcESaIcEE12_M_constructIPKcEEvT_S8_St20forward_iterator_tag(ptr noundef nonnull align 8 dereferenceable(32) %3, ptr noundef nonnull @.str.64, ptr noundef nonnull getelementptr inbounds nuw (i8, ptr @.str.64, i64 1))
          to label %_ZNSt7__cxx1112basic_stringIcSt11char_traitsIcESaIcEEC2IS3_EEPKcRKS3_.exit unwind label %6

6:                                                ; preds = %.noexc10
  %7 = landingpad { ptr, i32 }
          cleanup
  call void @_ZNSaIcED2Ev(ptr noundef nonnull align 8 dereferenceable(32) %3) #16
  br label %.body

_ZNSt7__cxx1112basic_stringIcSt11char_traitsIcESaIcEEC2IS3_EEPKcRKS3_.exit: ; preds = %.noexc10
  call void @_ZNSaIcED1Ev(ptr noundef nonnull align 1 dereferenceable(1) %4) #16
  %8 = getelementptr inbounds nuw i8, ptr %1, i64 8
  %9 = load ptr, ptr %8, align 8
  %10 = load ptr, ptr %1, align 8
  %.not = icmp eq ptr %9, %10
  br i1 %.not, label %._crit_edge, label %.lr.ph

.lr.ph:                                           ; preds = %_ZNSt7__cxx1112basic_stringIcSt11char_traitsIcESaIcEEC2IS3_EEPKcRKS3_.exit, %17
  %11 = phi ptr [ %20, %17 ], [ %10, %_ZNSt7__cxx1112basic_stringIcSt11char_traitsIcESaIcEEC2IS3_EEPKcRKS3_.exit ]
  %.011 = phi i64 [ %18, %17 ], [ 0, %_ZNSt7__cxx1112basic_stringIcSt11char_traitsIcESaIcEEC2IS3_EEPKcRKS3_.exit ]
  %12 = icmp eq i64 %.011, 0
  %13 = select i1 %12, ptr @.str, ptr @.str.66
  %14 = getelementptr inbounds i8, ptr %11, i64 %.011
  %15 = load i8, ptr %14, align 1
  %16 = zext i8 %15 to i32
  invoke void (ptr, ptr, ...) @_ZN4Luau12formatAppendERNSt7__cxx1112basic_stringIcSt11char_traitsIcESaIcEEEPKcz(ptr noundef nonnull align 8 dereferenceable(32) %3, ptr noundef nonnull @.str.69, ptr noundef nonnull %13, i32 noundef %16)
          to label %17 unwind label %.loopexit

17:                                               ; preds = %.lr.ph
  %18 = add nuw i64 %.011, 1
  %19 = load ptr, ptr %8, align 8
  %20 = load ptr, ptr %1, align 8
  %21 = ptrtoint ptr %19 to i64
  %22 = ptrtoint ptr %20 to i64
  %23 = sub i64 %21, %22
  %24 = icmp ult i64 %18, %23
  br i1 %24, label %.lr.ph, label %._crit_edge, !llvm.loop !94

25:                                               ; preds = %.noexc, %2
  %26 = landingpad { ptr, i32 }
          cleanup
  br label %.body

.body:                                            ; preds = %6, %25
  %eh.lpad-body = phi { ptr, i32 } [ %26, %25 ], [ %7, %6 ]
  call void @_ZNSaIcED1Ev(ptr noundef nonnull align 1 dereferenceable(1) %4) #16
  br label %31

.loopexit:                                        ; preds = %.lr.ph
  %lpad.loopexit = landingpad { ptr, i32 }
          cleanup
  br label %27

.loopexit.split-lp:                               ; preds = %._crit_edge, %29
  %lpad.loopexit.split-lp = landingpad { ptr, i32 }
          cleanup
  br label %27

27:                                               ; preds = %.loopexit.split-lp, %.loopexit
  %lpad.phi = phi { ptr, i32 } [ %lpad.loopexit, %.loopexit ], [ %lpad.loopexit.split-lp, %.loopexit.split-lp ]
  call void @_ZNSt7__cxx1112basic_stringIcSt11char_traitsIcESaIcEED1Ev(ptr noundef nonnull align 8 dereferenceable(32) %3) #16
  br label %31

._crit_edge:                                      ; preds = %17, %_ZNSt7__cxx1112basic_stringIcSt11char_traitsIcESaIcEEC2IS3_EEPKcRKS3_.exit
  %28 = invoke noundef nonnull align 8 dereferenceable(32) ptr @_ZNSt7__cxx1112basic_stringIcSt11char_traitsIcESaIcEE6appendEPKc(ptr noundef nonnull align 8 dereferenceable(32) %3, ptr noundef nonnull @.str.67)
          to label %29 unwind label %.loopexit.split-lp

29:                                               ; preds = %._crit_edge
  invoke void @_ZNSt7__cxx1112basic_stringIcSt11char_traitsIcESaIcEEC1ERKS4_(ptr noundef nonnull align 8 dereferenceable(32) %0, ptr noundef nonnull align 8 dereferenceable(32) %28)
          to label %30 unwind label %.loopexit.split-lp

30:                                               ; preds = %29
  call void @_ZNSt7__cxx1112basic_stringIcSt11char_traitsIcESaIcEED1Ev(ptr noundef nonnull align 8 dereferenceable(32) %3) #16
  ret void

31:                                               ; preds = %27, %.body
  %.pn = phi { ptr, i32 } [ %lpad.phi, %27 ], [ %eh.lpad-body, %.body ]
  resume { ptr, i32 } %.pn
}